target datalayout = "e-m:e-p270:32:32-p271:32:32-p272:64:64-i64:64-i128:128-f80:128-n8:16:32:64-S128"
target triple = "x86_64-pc-linux-gnu"

%struct.SUNProfiler_ = type { i32, ptr, ptr, ptr, double }
%struct._sunTimerStruct = type { ptr, ptr, double, double, double, i64 }
%struct.timespec = type { i64, i64 }

@.str = private unnamed_addr constant [24 x i8] c"SUNPROFILER_MAX_ENTRIES\00", align 1

; Function Attrs: nounwind uwtable
define internal i32 @sunclock_gettime_monotonic(ptr noundef %0) #0 {
  %2 = alloca ptr, align 8
  store ptr %0, ptr %2, align 8, !tbaa !54
  %3 = load ptr, ptr %2, align 8, !tbaa !54
  %4 = call i32 @clock_gettime(i32 noundef 1, ptr noundef %3) #8
  ret i32 %4
}

; Function Attrs: nounwind uwtable
define internal void @sunStopTiming(ptr noundef %0) #0 {
  %2 = alloca ptr, align 8
  %3 = alloca i64, align 8
  %4 = alloca i64, align 8
  store ptr %0, ptr %2, align 8, !tbaa !22
  call void @llvm.lifetime.start.p0(i64 8, ptr %3) #8
  store i64 0, ptr %3, align 8, !tbaa !36
  call void @llvm.lifetime.start.p0(i64 8, ptr %4) #8
  store i64 0, ptr %4, align 8, !tbaa !36
  %5 = load ptr, ptr %2, align 8, !tbaa !22
  %6 = getelementptr inbounds nuw %struct._sunTimerStruct, ptr %5, i32 0, i32 1
  %7 = load ptr, ptr %6, align 8, !tbaa !27
  %8 = call i32 @sunclock_gettime_monotonic(ptr noundef %7)
  %9 = load ptr, ptr %2, align 8, !tbaa !22
  %10 = getelementptr inbounds nuw %struct._sunTimerStruct, ptr %9, i32 0, i32 1
  %11 = load ptr, ptr %10, align 8, !tbaa !27
  %12 = getelementptr inbounds nuw %struct.timespec, ptr %11, i32 0, i32 0
  %13 = load i64, ptr %12, align 8, !tbaa !28
  %14 = load ptr, ptr %2, align 8, !tbaa !22
  %15 = getelementptr inbounds nuw %struct._sunTimerStruct, ptr %14, i32 0, i32 0
  %16 = load ptr, ptr %15, align 8, !tbaa !23
  %17 = getelementptr inbounds nuw %struct.timespec, ptr %16, i32 0, i32 0
  %18 = load i64, ptr %17, align 8, !tbaa !28
  %19 = sub nsw i64 %13, %18
  store i64 %19, ptr %3, align 8, !tbaa !36
  %20 = load ptr, ptr %2, align 8, !tbaa !22
  %21 = getelementptr inbounds nuw %struct._sunTimerStruct, ptr %20, i32 0, i32 1
  %22 = load ptr, ptr %21, align 8, !tbaa !27
  %23 = getelementptr inbounds nuw %struct.timespec, ptr %22, i32 0, i32 1
  %24 = load i64, ptr %23, align 8, !tbaa !30
  %25 = load ptr, ptr %2, align 8, !tbaa !22
  %26 = getelementptr inbounds nuw %struct._sunTimerStruct, ptr %25, i32 0, i32 0
  %27 = load ptr, ptr %26, align 8, !tbaa !23
  %28 = getelementptr inbounds nuw %struct.timespec, ptr %27, i32 0, i32 1
  %29 = load i64, ptr %28, align 8, !tbaa !30
  %30 = sub nsw i64 %24, %29
  store i64 %30, ptr %4, align 8, !tbaa !36
  %31 = load i64, ptr %4, align 8, !tbaa !36
  %32 = icmp slt i64 %31, 0
  br i1 %32, label %33, label %48

33:                                               ; preds = %1
  %34 = load i64, ptr %3, align 8, !tbaa !36
  %35 = add nsw i64 %34, -1
  store i64 %35, ptr %3, align 8, !tbaa !36
  %36 = load ptr, ptr %2, align 8, !tbaa !22
  %37 = getelementptr inbounds nuw %struct._sunTimerStruct, ptr %36, i32 0, i32 1
  %38 = load ptr, ptr %37, align 8, !tbaa !27
  %39 = getelementptr inbounds nuw %struct.timespec, ptr %38, i32 0, i32 1
  %40 = load i64, ptr %39, align 8, !tbaa !30
  %41 = add nsw i64 1000000000, %40
  %42 = load ptr, ptr %2, align 8, !tbaa !22
  %43 = getelementptr inbounds nuw %struct._sunTimerStruct, ptr %42, i32 0, i32 0
  %44 = load ptr, ptr %43, align 8, !tbaa !23
  %45 = getelementptr inbounds nuw %struct.timespec, ptr %44, i32 0, i32 1
  %46 = load i64, ptr %45, align 8, !tbaa !30
  %47 = sub nsw i64 %41, %46
  store i64 %47, ptr %4, align 8, !tbaa !36
  br label %48

48:                                               ; preds = %33, %1
  %49 = load i64, ptr %3, align 8, !tbaa !36
  %50 = sitofp i64 %49 to double
  %51 = load i64, ptr %4, align 8, !tbaa !36
  %52 = sitofp i64 %51 to double
  %53 = call double @llvm.fmuladd.f64(double %52, double 1.000000e-09, double %50)
  %54 = load ptr, ptr %2, align 8, !tbaa !22
  %55 = getelementptr inbounds nuw %struct._sunTimerStruct, ptr %54, i32 0, i32 4
  %56 = load double, ptr %55, align 8, !tbaa !31
  %57 = fadd double %56, %53
  store double %57, ptr %55, align 8, !tbaa !31
  %58 = load ptr, ptr %2, align 8, !tbaa !22
  %59 = getelementptr inbounds nuw %struct._sunTimerStruct, ptr %58, i32 0, i32 4
  %60 = load double, ptr %59, align 8, !tbaa !31
  %61 = load ptr, ptr %2, align 8, !tbaa !22
  %62 = getelementptr inbounds nuw %struct._sunTimerStruct, ptr %61, i32 0, i32 2
  store double %60, ptr %62, align 8, !tbaa !32
  %63 = load ptr, ptr %2, align 8, !tbaa !22
  %64 = getelementptr inbounds nuw %struct._sunTimerStruct, ptr %63, i32 0, i32 4
  %65 = load double, ptr %64, align 8, !tbaa !31
  %66 = load ptr, ptr %2, align 8, !tbaa !22
  %67 = getelementptr inbounds nuw %struct._sunTimerStruct, ptr %66, i32 0, i32 3
  store double %65, ptr %67, align 8, !tbaa !33
  call void @llvm.lifetime.end.p0(i64 8, ptr %4) #8
  call void @llvm.lifetime.end.p0(i64 8, ptr %3) #8
  ret void
}

; Function Attrs: nounwind uwtable
define internal void @sunTimerStructFree(ptr noundef %0) #0 {
  %2 = alloca ptr, align 8
  %3 = alloca ptr, align 8
  store ptr %0, ptr %2, align 8, !tbaa !35
  call void @llvm.lifetime.start.p0(i64 8, ptr %3) #8
  %4 = load ptr, ptr %2, align 8, !tbaa !35
  store ptr %4, ptr %3, align 8, !tbaa !22
  %5 = load ptr, ptr %3, align 8, !tbaa !22
  %6 = icmp ne ptr %5, null
  br i1 %6, label %7, label %27

7:                                                ; preds = %1
  %8 = load ptr, ptr %3, align 8, !tbaa !22
  %9 = getelementptr inbounds nuw %struct._sunTimerStruct, ptr %8, i32 0, i32 0
  %10 = load ptr, ptr %9, align 8, !tbaa !23
  %11 = icmp ne ptr %10, null
  br i1 %11, label %12, label %16

12:                                               ; preds = %7
  %13 = load ptr, ptr %3, align 8, !tbaa !22
  %14 = getelementptr inbounds nuw %struct._sunTimerStruct, ptr %13, i32 0, i32 0
  %15 = load ptr, ptr %14, align 8, !tbaa !23
  call void @free(ptr noundef %15) #8
  br label %16

16:                                               ; preds = %12, %7
  %17 = load ptr, ptr %3, align 8, !tbaa !22
  %18 = getelementptr inbounds nuw %struct._sunTimerStruct, ptr %17, i32 0, i32 1
  %19 = load ptr, ptr %18, align 8, !tbaa !27
  %20 = icmp ne ptr %19, null
  br i1 %20, label %21, label %25

21:                                               ; preds = %16
  %22 = load ptr, ptr %3, align 8, !tbaa !22
  %23 = getelementptr inbounds nuw %struct._sunTimerStruct, ptr %22, i32 0, i32 1
  %24 = load ptr, ptr %23, align 8, !tbaa !27
  call void @free(ptr noundef %24) #8
  br label %25

25:                                               ; preds = %21, %16
  %26 = load ptr, ptr %3, align 8, !tbaa !22
  call void @free(ptr noundef %26) #8
  br label %27

27:                                               ; preds = %25, %1
  call void @llvm.lifetime.end.p0(i64 8, ptr %3) #8
  ret void
}

; Function Attrs: inlinehint nounwind willreturn memory(read) uwtable
define available_externally i32 @atoi(ptr noundef nonnull %0) #4 {
  %2 = alloca ptr, align 8
  store ptr %0, ptr %2, align 8, !tbaa !7
  %3 = load ptr, ptr %2, align 8, !tbaa !7
  %4 = call i64 @strtol(ptr noundef %3, ptr noundef null, i32 noundef 10) #8
  %5 = trunc i64 %4 to i32
  ret i32 %5
}

; Function Attrs: nounwind uwtable
define internal void @sunStartTiming(ptr noundef %0) #0 {
  %2 = alloca ptr, align 8
  store ptr %0, ptr %2, align 8, !tbaa !22
  %3 = load ptr, ptr %2, align 8, !tbaa !22
  %4 = getelementptr inbounds nuw %struct._sunTimerStruct, ptr %3, i32 0, i32 0
  %5 = load ptr, ptr %4, align 8, !tbaa !23
  %6 = call i32 @sunclock_gettime_monotonic(ptr noundef %5)
  ret void
}

; Function Attrs: nounwind uwtable
define internal ptr @sunTimerStructNew() #0 {
  %1 = alloca ptr, align 8
  call void @llvm.lifetime.start.p0(i64 8, ptr %1) #8
  %2 = call noalias ptr @malloc(i64 noundef 48) #9
  store ptr %2, ptr %1, align 8, !tbaa !22
  %3 = call noalias ptr @malloc(i64 noundef 16) #9
  %4 = load ptr, ptr %1, align 8, !tbaa !22
  %5 = getelementptr inbounds nuw %struct._sunTimerStruct, ptr %4, i32 0, i32 0
  store ptr %3, ptr %5, align 8, !tbaa !23
  %6 = call noalias ptr @malloc(i64 noundef 16) #9
  %7 = load ptr, ptr %1, align 8, !tbaa !22
  %8 = getelementptr inbounds nuw %struct._sunTimerStruct, ptr %7, i32 0, i32 1
  store ptr %6, ptr %8, align 8, !tbaa !27
  %9 = load ptr, ptr %1, align 8, !tbaa !22
  %10 = getelementptr inbounds nuw %struct._sunTimerStruct, ptr %9, i32 0, i32 0
  %11 = load ptr, ptr %10, align 8, !tbaa !23
  %12 = getelementptr inbounds nuw %struct.timespec, ptr %11, i32 0, i32 0
  store i64 0, ptr %12, align 8, !tbaa !28
  %13 = load ptr, ptr %1, align 8, !tbaa !22
  %14 = getelementptr inbounds nuw %struct._sunTimerStruct, ptr %13, i32 0, i32 0
  %15 = load ptr, ptr %14, align 8, !tbaa !23
  %16 = getelementptr inbounds nuw %struct.timespec, ptr %15, i32 0, i32 1
  store i64 0, ptr %16, align 8, !tbaa !30
  %17 = load ptr, ptr %1, align 8, !tbaa !22
  %18 = getelementptr inbounds nuw %struct._sunTimerStruct, ptr %17, i32 0, i32 4
  store double 0.000000e+00, ptr %18, align 8, !tbaa !31
  %19 = load ptr, ptr %1, align 8, !tbaa !22
  %20 = getelementptr inbounds nuw %struct._sunTimerStruct, ptr %19, i32 0, i32 2
  store double 0.000000e+00, ptr %20, align 8, !tbaa !32
  %21 = load ptr, ptr %1, align 8, !tbaa !22
  %22 = getelementptr inbounds nuw %struct._sunTimerStruct, ptr %21, i32 0, i32 3
  store double 0.000000e+00, ptr %22, align 8, !tbaa !33
  %23 = load ptr, ptr %1, align 8, !tbaa !22
  %24 = getelementptr inbounds nuw %struct._sunTimerStruct, ptr %23, i32 0, i32 5
  store i64 0, ptr %24, align 8, !tbaa !34
  %25 = load ptr, ptr %1, align 8, !tbaa !22
  call void @llvm.lifetime.end.p0(i64 8, ptr %1) #8
  ret ptr %25
}

; Function Attrs: nounwind uwtable
define i32 @SUNProfiler_Create(i32 noundef %0, ptr noundef %1, ptr noundef %2) #0 {
  %4 = alloca i32, align 4
  %5 = alloca i32, align 4
  %6 = alloca ptr, align 8
  %7 = alloca ptr, align 8
  %8 = alloca ptr, align 8
  %9 = alloca i32, align 4
  %10 = alloca ptr, align 8
  %11 = alloca i32, align 4
  store i32 %0, ptr %5, align 4, !tbaa !3
  store ptr %1, ptr %6, align 8, !tbaa !7
  store ptr %2, ptr %7, align 8, !tbaa !10
  call void @llvm.lifetime.start.p0(i64 8, ptr %8) #8
  call void @llvm.lifetime.start.p0(i64 4, ptr %9) #8
  call void @llvm.lifetime.start.p0(i64 8, ptr %10) #8
  %12 = call noalias ptr @malloc(i64 noundef 40) #9
  store ptr %12, ptr %8, align 8, !tbaa !12
  %13 = load ptr, ptr %7, align 8, !tbaa !10
  store ptr %12, ptr %13, align 8, !tbaa !12
  %14 = load ptr, ptr %8, align 8, !tbaa !12
  %15 = icmp eq ptr %14, null
  br i1 %15, label %16, label %17

16:                                               ; preds = %3
  store i32 0, ptr %4, align 4
  store i32 1, ptr %11, align 4
  br label %79

17:                                               ; preds = %3
  %18 = call ptr @sunTimerStructNew()
  %19 = load ptr, ptr %8, align 8, !tbaa !12
  %20 = getelementptr inbounds nuw %struct.SUNProfiler_, ptr %19, i32 0, i32 3
  store ptr %18, ptr %20, align 8, !tbaa !14
  %21 = load ptr, ptr %8, align 8, !tbaa !12
  %22 = getelementptr inbounds nuw %struct.SUNProfiler_, ptr %21, i32 0, i32 3
  %23 = load ptr, ptr %22, align 8, !tbaa !14
  %24 = icmp ne ptr %23, null
  br i1 %24, label %28, label %25

25:                                               ; preds = %17
  %26 = load ptr, ptr %8, align 8, !tbaa !12
  call void @free(ptr noundef %26) #8
  store ptr null, ptr %8, align 8, !tbaa !12
  %27 = load ptr, ptr %7, align 8, !tbaa !10
  store ptr null, ptr %27, align 8, !tbaa !12
  store i32 -9988, ptr %4, align 4
  store i32 1, ptr %11, align 4
  br label %79

28:                                               ; preds = %17
  %29 = load ptr, ptr %8, align 8, !tbaa !12
  %30 = getelementptr inbounds nuw %struct.SUNProfiler_, ptr %29, i32 0, i32 3
  %31 = load ptr, ptr %30, align 8, !tbaa !14
  call void @sunStartTiming(ptr noundef %31)
  store i32 2560, ptr %9, align 4, !tbaa !3
  %32 = call ptr @getenv(ptr noundef @.str) #8
  store ptr %32, ptr %10, align 8, !tbaa !7
  %33 = load ptr, ptr %10, align 8, !tbaa !7
  %34 = icmp ne ptr %33, null
  br i1 %34, label %35, label %38

35:                                               ; preds = %28
  %36 = load ptr, ptr %10, align 8, !tbaa !7
  %37 = call i32 @atoi(ptr noundef %36) #10
  store i32 %37, ptr %9, align 4, !tbaa !3
  br label %38

38:                                               ; preds = %35, %28
  %39 = load i32, ptr %9, align 4, !tbaa !3
  %40 = icmp sle i32 %39, 0
  br i1 %40, label %41, label %42

41:                                               ; preds = %38
  store i32 2560, ptr %9, align 4, !tbaa !3
  br label %42

42:                                               ; preds = %41, %38
  %43 = load i32, ptr %9, align 4, !tbaa !3
  %44 = load ptr, ptr %8, align 8, !tbaa !12
  %45 = getelementptr inbounds nuw %struct.SUNProfiler_, ptr %44, i32 0, i32 2
  %46 = call i32 @SUNHashMap_New(i32 noundef %43, ptr noundef %45)
  %47 = icmp ne i32 %46, 0
  br i1 %47, label %48, label %54

48:                                               ; preds = %42
  %49 = load ptr, ptr %8, align 8, !tbaa !12
  %50 = getelementptr inbounds nuw %struct.SUNProfiler_, ptr %49, i32 0, i32 3
  %51 = load ptr, ptr %50, align 8, !tbaa !14
  call void @sunTimerStructFree(ptr noundef %51)
  %52 = load ptr, ptr %8, align 8, !tbaa !12
  call void @free(ptr noundef %52) #8
  store ptr null, ptr %8, align 8, !tbaa !12
  %53 = load ptr, ptr %7, align 8, !tbaa !10
  store ptr null, ptr %53, align 8, !tbaa !12
  store i32 -9988, ptr %4, align 4
  store i32 1, ptr %11, align 4
  br label %79

54:                                               ; preds = %42
  %55 = load i32, ptr %5, align 4, !tbaa !3
  %56 = icmp ne i32 %55, 0
  br i1 %56, label %57, label %59

57:                                               ; preds = %54
  %58 = load ptr, ptr %8, align 8, !tbaa !12
  call void @free(ptr noundef %58) #8
  store i32 -1, ptr %4, align 4
  store i32 1, ptr %11, align 4
  br label %79

59:                                               ; preds = %54
  %60 = load ptr, ptr %8, align 8, !tbaa !12
  %61 = getelementptr inbounds nuw %struct.SUNProfiler_, ptr %60, i32 0, i32 0
  store i32 0, ptr %61, align 8, !tbaa !19
  %62 = load ptr, ptr %6, align 8, !tbaa !7
  %63 = call i64 @strlen(ptr noundef %62) #10
  %64 = add i64 %63, 1
  %65 = mul i64 %64, 1
  %66 = call noalias ptr @malloc(i64 noundef %65) #9
  %67 = load ptr, ptr %8, align 8, !tbaa !12
  %68 = getelementptr inbounds nuw %struct.SUNProfiler_, ptr %67, i32 0, i32 1
  store ptr %66, ptr %68, align 8, !tbaa !20
  %69 = load ptr, ptr %8, align 8, !tbaa !12
  %70 = getelementptr inbounds nuw %struct.SUNProfiler_, ptr %69, i32 0, i32 1
  %71 = load ptr, ptr %70, align 8, !tbaa !20
  %72 = load ptr, ptr %6, align 8, !tbaa !7
  %73 = call ptr @strcpy(ptr noundef %71, ptr noundef %72) #8
  %74 = load ptr, ptr %8, align 8, !tbaa !12
  %75 = getelementptr inbounds nuw %struct.SUNProfiler_, ptr %74, i32 0, i32 4
  store double 0.000000e+00, ptr %75, align 8, !tbaa !21
  %76 = load ptr, ptr %8, align 8, !tbaa !12
  %77 = getelementptr inbounds nuw %struct.SUNProfiler_, ptr %76, i32 0, i32 3
  %78 = load ptr, ptr %77, align 8, !tbaa !14
  call void @sunStopTiming(ptr noundef %78)
  store i32 0, ptr %4, align 4
  store i32 1, ptr %11, align 4
  br label %79

79:                                               ; preds = %59, %57, %48, %25, %16
  call void @llvm.lifetime.end.p0(i64 8, ptr %10) #8
  call void @llvm.lifetime.end.p0(i64 4, ptr %9) #8
  call void @llvm.lifetime.end.p0(i64 8, ptr %8) #8
  %80 = load i32, ptr %4, align 4
  ret i32 %80
}