; Function Attrs: nounwind uwtable
define range(i32 -9988, 1) i32 @SUNProfiler_Create(i32 noundef %0, ptr noundef readonly captures(none) %1, ptr noundef writeonly captures(none) initializes((0, 8)) %2) local_unnamed_addr #0 {
  %4 = tail call noalias dereferenceable_or_null(40) ptr @malloc(i64 noundef 40) #17
  store ptr %4, ptr %2, align 8, !tbaa !3
  %5 = icmp eq ptr %4, null
  br i1 %5, label %65, label %6

6:                                                ; preds = %3
  %7 = tail call noalias dereferenceable_or_null(48) ptr @malloc(i64 noundef 48) #17
  %calloc.i = tail call dereferenceable_or_null(16) ptr @calloc(i64 1, i64 16)
  store ptr %calloc.i, ptr %7, align 8, !tbaa !8
  %8 = tail call noalias dereferenceable_or_null(16) ptr @malloc(i64 noundef 16) #17
  %9 = getelementptr inbounds nuw i8, ptr %7, i64 8
  store ptr %8, ptr %9, align 8, !tbaa !13
  %10 = getelementptr inbounds nuw i8, ptr %7, i64 16
  tail call void @llvm.memset.p0.i64(ptr noundef nonnull align 8 dereferenceable(32) %10, i8 0, i64 32, i1 false)
  %11 = getelementptr inbounds nuw i8, ptr %4, i64 24
  store ptr %7, ptr %11, align 8, !tbaa !14
  %12 = tail call i32 @clock_gettime(i32 noundef 1, ptr noundef %calloc.i) #18
  %13 = tail call ptr @getenv(ptr noundef nonnull @.str) #18
  %.not28 = icmp eq ptr %13, null
  br i1 %.not28, label %.thread, label %14

14:                                               ; preds = %6
  %15 = tail call i64 @strtol(ptr noundef nonnull captures(none) %13, ptr noundef null, i32 noundef 10) #18
  %.fr33 = freeze i64 %15
  %16 = trunc i64 %.fr33 to i32
  %17 = icmp slt i32 %16, 1
  %spec.select = select i1 %17, i32 2560, i32 %16
  br label %.thread

.thread:                                          ; preds = %14, %6
  %18 = phi i32 [ 2560, %6 ], [ %spec.select, %14 ]
  %19 = getelementptr inbounds nuw i8, ptr %4, i64 16
  %20 = tail call i32 @SUNHashMap_New(i32 noundef %18, ptr noundef nonnull %19) #18
  %.not29 = icmp eq i32 %20, 0
  br i1 %.not29, label %31, label %21

21:                                               ; preds = %.thread
  %22 = load ptr, ptr %11, align 8, !tbaa !14
  %.not.i = icmp eq ptr %22, null
  br i1 %.not.i, label %sunTimerStructFree.exit, label %23

23:                                               ; preds = %21
  %24 = load ptr, ptr %22, align 8, !tbaa !8
  %.not9.i = icmp eq ptr %24, null
  br i1 %.not9.i, label %26, label %25

25:                                               ; preds = %23
  tail call void @free(ptr noundef nonnull %24) #18
  br label %26

26:                                               ; preds = %25, %23
  %27 = getelementptr inbounds nuw i8, ptr %22, i64 8
  %28 = load ptr, ptr %27, align 8, !tbaa !13
  %.not10.i = icmp eq ptr %28, null
  br i1 %.not10.i, label %30, label %29

29:                                               ; preds = %26
  tail call void @free(ptr noundef nonnull %28) #18
  br label %30

30:                                               ; preds = %29, %26
  tail call void @free(ptr noundef nonnull %22) #18
  br label %sunTimerStructFree.exit

sunTimerStructFree.exit:                          ; preds = %21, %30
  tail call void @free(ptr noundef nonnull %4) #18
  store ptr null, ptr %2, align 8, !tbaa !3
  br label %65

31:                                               ; preds = %.thread
  %.not30 = icmp eq i32 %0, 0
  br i1 %.not30, label %33, label %32

32:                                               ; preds = %31
  tail call void @free(ptr noundef nonnull %4) #18
  br label %65

33:                                               ; preds = %31
  store i32 0, ptr %4, align 8, !tbaa !20
  %34 = tail call i64 @strlen(ptr noundef nonnull dereferenceable(1) %1) #19
  %35 = add i64 %34, 1
  %36 = tail call noalias ptr @malloc(i64 noundef %35) #17
  %37 = getelementptr inbounds nuw i8, ptr %4, i64 8
  store ptr %36, ptr %37, align 8, !tbaa !21
  %38 = tail call ptr @strcpy(ptr noundef nonnull dereferenceable(1) %36, ptr noundef nonnull dereferenceable(1) %1) #18
  %39 = getelementptr inbounds nuw i8, ptr %4, i64 32
  store double 0.000000e+00, ptr %39, align 8, !tbaa !22
  %40 = load ptr, ptr %11, align 8, !tbaa !14
  %41 = getelementptr inbounds nuw i8, ptr %40, i64 8
  %42 = load ptr, ptr %41, align 8, !tbaa !13
  %43 = tail call i32 @clock_gettime(i32 noundef 1, ptr noundef %42) #18
  %44 = load ptr, ptr %41, align 8, !tbaa !13
  %45 = load i64, ptr %44, align 8, !tbaa !23
  %46 = load ptr, ptr %40, align 8, !tbaa !8
  %47 = load i64, ptr %46, align 8, !tbaa !23
  %48 = sub i64 %45, %47
  %49 = getelementptr inbounds nuw i8, ptr %44, i64 8
  %50 = load i64, ptr %49, align 8, !tbaa !25
  %51 = getelementptr inbounds nuw i8, ptr %46, i64 8
  %52 = load i64, ptr %51, align 8, !tbaa !25
  %53 = sub nsw i64 %50, %52
  %54 = icmp slt i64 %53, 0
  %55 = add nsw i64 %50, 1000000000
  %56 = sub i64 %55, %52
  %.lobit.i = ashr i64 %53, 63
  %.015.i = add nsw i64 %48, %.lobit.i
  %.0.i = select i1 %54, i64 %56, i64 %53
  %57 = sitofp i64 %.015.i to double
  %58 = sitofp i64 %.0.i to double
  %59 = tail call double @llvm.fmuladd.f64(double %58, double 1.000000e-09, double %57)
  %60 = getelementptr inbounds nuw i8, ptr %40, i64 32
  %61 = load double, ptr %60, align 8, !tbaa !26
  %62 = fadd double %61, %59
  store double %62, ptr %60, align 8, !tbaa !26
  %63 = getelementptr inbounds nuw i8, ptr %40, i64 16
  store double %62, ptr %63, align 8, !tbaa !27
  %64 = getelementptr inbounds nuw i8, ptr %40, i64 24
  store double %62, ptr %64, align 8, !tbaa !28
  br label %65

65:                                               ; preds = %3, %33, %32, %sunTimerStructFree.exit
  %.0 = phi i32 [ -9988, %sunTimerStructFree.exit ], [ -1, %32 ], [ 0, %33 ], [ 0, %3 ]
  ret i32 %.0
}